Certificate:
    Data:
        Version: 3 (0x2)
        Serial Number:
            46:79:6c:30:a7:9e:ed:70:17:bd:e8:2a:2f:b2:e1:df:8d:7e:85:3b
        Signature Algorithm: sha256WithRSAEncryption
        Issuer: O = Local development, CN = Local development CA
        Validity
            Not Before: Jun  6 14:14:00 2024 GMT
            Not After : Jun  6 14:14:00 2025 GMT
        Subject: O = Local development, CN = local
        Subject Public Key Info:
            Public Key Algorithm: rsaEncryption
                Public-Key: (2048 bit)
                Modulus:
                    00:df:88:cc:97:46:d6:0c:e9:c7:f9:7c:43:ac:f4:
                    00:fb:6e:8a:79:c4:32:47:56:6c:42:f6:99:b7:82:
                    51:bb:72:d7:33:e4:7a:31:59:12:b6:07:ca:81:65:
                    c5:d5:12:96:f5:bf:1f:b5:0c:8c:4c:69:de:0a:f8:
                    62:84:53:ce:e1:e3:a1:63:56:a1:04:71:4b:c8:d8:
                    29:30:c5:3a:25:9e:4b:e6:a7:51:a7:74:a5:f8:da:
                    61:7c:0b:8d:a9:97:dd:e2:7a:75:77:e3:2e:67:cb:
                    34:6e:6e:a5:b9:9d:fe:b6:f6:3d:4b:74:88:ab:78:
                    a3:91:94:c5:b2:57:b7:d8:24:9a:42:45:24:c6:42:
                    50:a6:6a:2c:c7:cc:ed:ed:4f:46:b4:5f:cd:e4:86:
                    6d:1d:55:25:09:33:63:9d:8b:9d:08:ff:9a:75:79:
                    38:05:df:f2:7d:bd:d8:8d:42:59:bb:6a:e3:7d:4b:
                    da:ad:5a:24:fe:2e:65:0b:6c:84:ab:6c:6a:40:42:
                    0d:de:55:cb:41:c1:e4:92:98:53:e4:c0:d5:4a:0e:
                    f6:fa:a7:31:9e:24:2a:73:ef:31:4e:ab:df:f5:0a:
                    16:88:93:ff:ef:e9:00:23:a2:5e:ba:2c:be:bd:e1:
                    b6:f4:6b:af:1e:eb:06:ef:56:8d:3a:eb:f7:40:47:
                    d1:95
                Exponent: 65537 (0x10001)
        X509v3 extensions:
            X509v3 Key Usage: critical
                Digital Signature, Key Encipherment
            X509v3 Extended Key Usage: 
                TLS Web Server Authentication, TLS Web Client Authentication
            X509v3 Basic Constraints: critical
                CA:FALSE
            X509v3 Subject Key Identifier: 
                DF:2B:78:2C:D7:BC:27:6A:A0:3A:F0:70:7B:67:21:73:05:C5:28:21
            X509v3 Authority Key Identifier: 
                3B:45:8A:83:72:7F:11:C1:39:FB:2C:57:BF:35:E8:35:E5:77:D9:DA
            X509v3 Subject Alternative Name: 
                DNS:localhost, DNS:*.local
    Signature Algorithm: sha256WithRSAEncryption
    Signature Value:
        12:67:23:6b:1a:4c:f0:d9:a7:6d:d4:d0:09:61:75:87:7e:40:
        68:eb:13:51:00:e5:85:fb:29:63:1b:95:36:4a:d7:79:6d:f0:
        c8:82:7e:a0:08:bf:8a:90:11:66:99:4f:b2:32:61:24:c6:55:
        71:be:62:49:7e:08:d8:e4:53:84:76:e0:1c:79:e8:7b:7d:05:
        0c:cc:ab:c6:be:f1:59:91:61:e1:9c:42:2f:38:0e:4c:55:97:
        f5:98:f3:af:7e:9f:56:ee:5c:12:80:58:25:25:a7:b0:86:5e:
        10:17:77:08:ad:8f:44:32:5d:a4:7c:70:56:e8:46:d0:fd:48:
        71:b9:fd:90:8b:1d:87:6f:73:dd:bf:13:7f:49:e5:00:83:04:
        a2:71:bb:f0:07:2d:d3:e1:c0:da:a6:f8:65:4c:07:74:75:26:
        fd:3c:ed:ca:7e:01:a4:a9:fa:9a:eb:2d:4d:0c:bb:0c:6f:81:
        c9:8d:e3:41:1b:99:34:fe:1c:a6:16:9e:ca:9c:0a:ec:46:0d:
        92:84:65:d8:be:10:07:27:e8:1c:24:21:55:16:9b:d5:b4:f5:
        cc:f6:5b:59:18:8b:6f:09:d4:d1:a9:aa:07:ca:2b:a2:18:4e:
        51:3f:b3:43:04:a9:34:8d:2a:24:6f:d9:ea:68:3e:a3:a6:34:
        ff:5d:99:66
-----BEGIN CERTIFICATE-----
MIIDlTCCAn2gAwIBAgIURnlsMKee7XAXvegqL7Lh341+hTswDQYJKoZIhvcNAQEL
BQAwOzEaMBgGA1UEChMRTG9jYWwgZGV2ZWxvcG1lbnQxHTAbBgNVBAMTFExvY2Fs
IGRldmVsb3BtZW50IENBMB4XDTI0MDYwNjE0MTQwMFoXDTI1MDYwNjE0MTQwMFow
LDEaMBgGA1UEChMRTG9jYWwgZGV2ZWxvcG1lbnQxDjAMBgNVBAMTBWxvY2FsMIIB
IjANBgkqhkiG9w0BAQEFAAOCAQ8AMIIBCgKCAQEA34jMl0bWDOnH+XxDrPQA+26K
ecQyR1ZsQvaZt4JRu3LXM+R6MVkStgfKgWXF1RKW9b8ftQyMTGneCvhihFPO4eOh
Y1ahBHFLyNgpMMU6JZ5L5qdRp3Sl+NphfAuNqZfd4np1d+MuZ8s0bm6luZ3+tvY9
S3SIq3ijkZTFsle32CSaQkUkxkJQpmosx8zt7U9GtF/N5IZtHVUlCTNjnYudCP+a
dXk4Bd/yfb3YjUJZu2rjfUvarVok/i5lC2yEq2xqQEIN3lXLQcHkkphT5MDVSg72
+qcxniQqc+8xTqvf9QoWiJP/7+kAI6Jeuiy+veG29GuvHusG71aNOuv3QEfRlQID
AQABo4GfMIGcMA4GA1UdDwEB/wQEAwIFoDAdBgNVHSUEFjAUBggrBgEFBQcDAQYI
KwYBBQUHAwIwDAYDVR0TAQH/BAIwADAdBgNVHQ4EFgQU3yt4LNe8J2qgOvBwe2ch
cwXFKCEwHwYDVR0jBBgwFoAUO0WKg3J/EcE5+yxXvzXoNeV32dowHQYDVR0RBBYw
FIIJbG9jYWxob3N0ggcqLmxvY2FsMA0GCSqGSIb3DQEBCwUAA4IBAQASZyNrGkzw
2adt1NAJYXWHfkBo6xNRAOWF+yljG5U2Std5bfDIgn6gCL+KkBFmmU+yMmEkxlVx
vmJJfgjY5FOEduAceeh7fQUMzKvGvvFZkWHhnEIvOA5MVZf1mPOvfp9W7lwSgFgl
Jaewhl4QF3cIrY9EMl2kfHBW6EbQ/Uhxuf2Qix2Hb3PdvxN/SeUAgwSicbvwBy3T
4cDapvhlTAd0dSb9PO3KfgGkqfqa6y1NDLsMb4HJjeNBG5k0/hymFp7KnArsRg2S
hGXYvhAHJ+gcJCFVFpvVtPXM9ltZGItvCdTRqaoHyiuiGE5RP7NDBKk0jSokb9nq
aD6jpjT/XZlm
-----END CERTIFICATE-----
