Certificate:
    Data:
        Version: 3 (0x2)
        Serial Number:
            2e:51:6a:0a:86:00:61:3d:1d:6b:22:fe:22:6c:a8:43:36:2a:4b:05
        Signature Algorithm: sha256WithRSAEncryption
        Issuer: O = Local development, CN = Local development CA
        Validity
            Not Before: Jun  6 14:13:00 2024 GMT
            Not After : Jun  5 14:13:00 2029 GMT
        Subject: O = Local development, CN = Local development CA
        Subject Public Key Info:
            Public Key Algorithm: rsaEncryption
                Public-Key: (2048 bit)
                Modulus:
                    00:cc:92:85:9f:4e:6b:3f:68:de:0c:81:0a:38:09:
                    41:54:f0:c6:40:3f:90:43:db:b3:1a:ba:59:57:4d:
                    f3:a5:99:29:54:07:95:a2:fd:9a:66:96:1e:8e:35:
                    5c:cb:37:e2:af:17:8e:81:77:15:14:a8:b7:0a:8a:
                    f5:48:31:23:b6:d3:85:57:e6:99:94:51:c9:e6:92:
                    e8:ba:4f:1e:66:ff:b7:21:32:5d:4b:80:be:d4:0c:
                    fc:cf:99:11:ba:08:5e:cc:52:2c:f2:8f:a8:4c:ca:
                    1c:48:4b:12:23:21:34:7b:52:10:20:c3:62:e7:28:
                    dd:05:98:e9:11:eb:ed:7a:aa:e9:2e:19:99:22:93:
                    06:f2:cb:3a:cc:84:37:f0:d4:3e:c1:32:65:2b:52:
                    32:c6:3a:59:7d:a3:d6:0d:b2:8b:64:28:fa:12:87:
                    b4:e8:30:70:ba:f8:44:c8:c2:89:2f:09:eb:29:f2:
                    c2:b8:cb:8f:29:0a:88:a4:09:6c:fb:21:b7:41:37:
                    b0:db:5a:09:ce:e9:3f:cd:ae:d7:fe:54:ad:e5:97:
                    d3:55:58:df:2b:c0:9e:eb:5a:76:a4:95:54:a4:70:
                    50:ad:65:a2:55:29:a0:6e:fa:17:25:6e:dc:b8:0e:
                    5c:9a:88:c1:9c:3e:b7:76:56:ff:17:62:f0:89:c0:
                    eb:f7
                Exponent: 65537 (0x10001)
        X509v3 extensions:
            X509v3 Key Usage: critical
                Certificate Sign, CRL Sign
            X509v3 Basic Constraints: critical
                CA:TRUE
            X509v3 Subject Key Identifier: 
                3B:45:8A:83:72:7F:11:C1:39:FB:2C:57:BF:35:E8:35:E5:77:D9:DA
    Signature Algorithm: sha256WithRSAEncryption
    Signature Value:
        0f:c2:17:bf:13:b4:13:b2:4f:68:b2:5b:61:dc:08:f8:56:67:
        39:cc:80:a3:ff:0d:2a:eb:66:6a:7e:8c:57:b0:bb:91:74:ec:
        57:89:1f:75:32:9d:3b:91:d1:25:0a:06:a6:8c:50:e8:3d:2b:
        6a:dd:15:27:ea:6b:39:ed:6b:c0:75:8f:79:be:92:e0:d0:26:
        87:87:89:10:b4:ba:24:9b:24:34:92:03:78:c2:d1:de:81:0f:
        e7:8b:73:e3:0f:e6:2b:4e:e4:43:36:41:a0:48:1b:69:b0:18:
        9b:fc:f0:12:b6:c5:ed:66:1a:40:64:34:af:2b:88:5b:0d:b2:
        cb:e1:ee:dc:ad:1b:a4:e6:05:9d:42:e7:af:1c:b1:4d:b6:f9:
        47:e6:8d:a7:0b:1b:4d:a1:7f:65:b7:f0:9b:5c:ea:b0:77:03:
        ff:08:36:c0:62:91:bd:a1:4f:72:93:30:da:b7:d8:cf:eb:78:
        63:16:92:aa:e2:d9:fc:b8:e2:37:fd:4c:35:52:b7:a3:78:4f:
        0e:d9:39:d8:f0:cb:d7:00:df:b3:f4:68:14:33:69:1d:50:dc:
        57:1a:34:28:29:4d:45:c4:f0:10:93:52:40:70:a7:7f:33:97:
        d1:c3:96:92:b5:e9:bc:ee:2d:f0:ce:d5:dc:c0:ec:18:a7:d7:
        5e:cf:da:c0
-----BEGIN CERTIFICATE-----
MIIDRjCCAi6gAwIBAgIULlFqCoYAYT0dayL+ImyoQzYqSwUwDQYJKoZIhvcNAQEL
BQAwOzEaMBgGA1UEChMRTG9jYWwgZGV2ZWxvcG1lbnQxHTAbBgNVBAMTFExvY2Fs
IGRldmVsb3BtZW50IENBMB4XDTI0MDYwNjE0MTMwMFoXDTI5MDYwNTE0MTMwMFow
OzEaMBgGA1UEChMRTG9jYWwgZGV2ZWxvcG1lbnQxHTAbBgNVBAMTFExvY2FsIGRl
dmVsb3BtZW50IENBMIIBIjANBgkqhkiG9w0BAQEFAAOCAQ8AMIIBCgKCAQEAzJKF
n05rP2jeDIEKOAlBVPDGQD+QQ9uzGrpZV03zpZkpVAeVov2aZpYejjVcyzfirxeO
gXcVFKi3Cor1SDEjttOFV+aZlFHJ5pLouk8eZv+3ITJdS4C+1Az8z5kRughezFIs
8o+oTMocSEsSIyE0e1IQIMNi5yjdBZjpEevteqrpLhmZIpMG8ss6zIQ38NQ+wTJl
K1IyxjpZfaPWDbKLZCj6Eoe06DBwuvhEyMKJLwnrKfLCuMuPKQqIpAls+yG3QTew
21oJzuk/za7X/lSt5ZfTVVjfK8Ce61p2pJVUpHBQrWWiVSmgbvoXJW7cuA5cmojB
nD63dlb/F2LwicDr9wIDAQABo0IwQDAOBgNVHQ8BAf8EBAMCAQYwDwYDVR0TAQH/
BAUwAwEB/zAdBgNVHQ4EFgQUO0WKg3J/EcE5+yxXvzXoNeV32dowDQYJKoZIhvcN
AQELBQADggEBAA/CF78TtBOyT2iyW2HcCPhWZznMgKP/DSrrZmp+jFewu5F07FeJ
H3UynTuR0SUKBqaMUOg9K2rdFSfqaznta8B1j3m+kuDQJoeHiRC0uiSbJDSSA3jC
0d6BD+eLc+MP5itO5EM2QaBIG2mwGJv88BK2xe1mGkBkNK8riFsNssvh7tytG6Tm
BZ1C568csU22+UfmjacLG02hf2W38Jtc6rB3A/8INsBikb2hT3KTMNq32M/reGMW
kqri2fy44jf9TDVSt6N4Tw7ZOdjwy9cA37P0aBQzaR1Q3FcaNCgpTUXE8BCTUkBw
p38zl9HDlpK16bzuLfDO1dzA7Bin117P2sA=
-----END CERTIFICATE-----
